(dp1
S'dht state'
p2
(dp3
S'node-id'
p4
S'\xe3\xc1\x15\xc3\xb2\x05\xcf\xf1P\x1aK\xb8\xfb\x0e\xdaXSR\x18Z'
p5
ssS'settings'
p6
(dp7
S'cache_size'
p8
L256L
sS'half_open_limit'
p9
L2147483647L
sS'ignore_limits_on_local_network'
p10
L0L
sS'user_agent'
p11
S'uTorrent/2200(24683)'
p12
ssS'i2p'
p13
(dp14
sS'encryption'
p15
(dp16
sS'proxy'
p17
(dp18
sS'feeds'
p19
(lp20
sS'dht'
p21
(dp22
s.