(dp1
S'dht state'
p2
(dp3
S'node-id'
p4
S'\xb1a\xdf\xf0\xc4\x95\xcc6\xe3\xb6\x03\xfa\x8a\xe5.\xe0\xe0\xfd\xbc\xae'
p5
ssS'settings'
p6
(dp7
S'cache_size'
p8
L256L
sS'half_open_limit'
p9
L2147483647L
sS'ignore_limits_on_local_network'
p10
L0L
sS'user_agent'
p11
S'uTorrent/2200(24683)'
p12
ssS'i2p'
p13
(dp14
sS'encryption'
p15
(dp16
sS'proxy'
p17
(dp18
sS'feeds'
p19
(lp20
sS'dht'
p21
(dp22
s.