(dp1
S'rd'
p2
(lp3
V
aV4shared.com
p4
aVsky.fm
p5
aVfileover.net
p6
aV2shared.com
p7
aVfilerio.com
p8
aVredbunker.net
p9
aVvideoweed.es
p10
aVclicknupload.me
p11
aVrockfile.eu
p12
aVuploadable.ch
p13
aVyouporn.com
p14
aVuploading.com
p15
aVgigapeta.com
p16
aVuploadx.org
p17
aVload.to
p18
aVworldbytez.com
p19
aVcbs.com
p20
aVuserporn.com
p21
aVhulkshare.com
p22
aVmightyupload.com
p23
aVkeep2share.cc
p24
aVuploading.site
p25
aVyouwatch.org
p26
aVuploaded.net
p27
aVwipfiles.net
p28
aVyunfile.com
p29
aVrapidgator.net
p30
aVturbobit.net
p31
aVdl.free.fr
p32
aVicerbox.com
p33
aVfileflyer.com
p34
aVinclouddrive.com
p35
aVzippyshare.com
p36
aVstreamin.to
p37
aVdailymotion.com
p38
aVnovamov.com
p39
aVfaststore.org
p40
aVuptobox.com
p41
aVoboom.com
p42
aVdatei.to
p43
aVsalefiles.com
p44
aVkingfiles.net
p45
aVmovshare.net
p46
aVuserscloud.com
p47
aVopenload.co
p48
aVnowdownload.eu
p49
aVmediafire.com
p50
aVhitfile.net
p51
aVveevr.com
p52
aVanafile.com
p53
aVunibytes.com
p54
aVcatshare.net
p55
aVnowvideo.eu
p56
aVfilefactory.com
p57
aVvimeo.com
p58
aVsoundcloud.com
p59
aVdatafilehost.com
p60
aVrutube.ru
p61
aVrarefile.net
p62
aVulozto.net
p63
aVsendspace.com
p64
aVdepfile.com
p65
aVuploadc.com
p66
aValfafile.net
p67
aVthevideo.me
p68
aVfilesmonster.com
p69
aVyoutube.com
p70
aVnitroflare.com
p71
aV1fichier.com
p72
aVuploadrocket.net
p73
aVextmatrix.com
p74
aVcanalplus.fr
p75
aVfilesflash.com
p76
aVsolidfiles.com
p77
aVmega.co.nz
p78
aVscribd.com
p79
aVupstore.net
p80
aVfilesabc.com
p81
aV24uploading.com
p82
aVgigasize.com
p83
aVredtube.com
p84
aVreal-debrid.com
p85
aVuplea.com
p86
aVshare-online.biz
p87
aVdatafile.com
p88
aVexashare.com
p89
aVtusfiles.net
p90
aVgboxes.com
p91
aVupload.af
p92
aVozofiles.com
p93
aVcloudtime.to
p94
aVgulfup.com
p95
aVeasybytez.com
p96
asS'rp'
p97
(lp98
V1fichier.com
p99
aVakafile.com
p100
aValfafile.net
p101
aVanafile.com
p102
aVausfile.com
p103
aVbdupload.info
p104
aVbigfile.to
p105
aVcloudyfiles.co
p106
aVdailyuploads.net
p107
aVdatafile.com
p108
aVdipfile.com
p109
aVdebfile.com
p110
aVdepfile.com
p111
aVdepfile.us
p112
aVdepositfiles.com
p113
aVdepositfiles.org
p114
aVdfiles.eu
p115
aVdfiles.ru
p116
aVeasybytez.com
p117
aVezfile.ch
p118
aVfilecloud.io
p119
aVfilefactory.com
p120
aVfilepup.net
p121
aVfilerio.in
p122
aVfilescdn.com
p123
aVfilesflash.com
p124
aVfilespace.com
p125
aVfiletut.com
p126
aVfiredrop.com
p127
aVheroupload.com
p128
aVifile.it
p129
aVindishare.me
p130
aVhulkload.com
p131
aVkatfile.com
p132
aVnitroflare.com
p133
aVnodefiles.com
p134
aVprefiles.com
p135
aVputlocker.ws
p136
aVrapidfileshare.net
p137
aVrapidgator.net
p138
aVrapidrar.com
p139
aVrg.to
p140
aVsafelinking.net
p141
aVshare-online.biz
p142
aVsuprafiles.net
p143
aVturbobit.net
p144
aVtusfiles.net
p145
aVul.to
p146
aVunibytes.com
p147
aVupload.mn
p148
aVuploadable.ch
p149
aVuploadbank.com
p150
aVuploadcloud.pro
p151
aVuploaded.net
p152
aVuploaded.to
p153
aVuploadocean.com
p154
aVuploadrocket.net
p155
aVuploads.to
p156
aVuploadz.org
p157
aVuplod.ws
p158
aVuptobox.com
p159
aVuserscloud.com
p160
aVusersfiles.com
p161
asS'ad'
p162
(lp163
V1fichier.com
p164
aV2shared.com
p165
aV4shared.com
p166
aVausfile.com
p167
aVbigfile.to
p168
aVcloudsix.me
p169
aVdatei.to
p170
aVdepfile.com
p171
aVdipfile.com
p172
aVdebfile.com
p173
aVeasybytez.com
p174
aVexoshare.com
p175
aVextmatrix.com
p176
aVfaststore.org
p177
aVfile4safe.com
p178
aVfilefactory.com
p179
aVfilebox.com
p180
aVfileflyer.com
p181
aVfilesabc.com
p182
aVfilesave.me
p183
aVfilesflash.com
p184
aVfilesflash.net
p185
aVfilesmonster.net
p186
aVfiredrive.com
p187
aVfiredrop.com
p188
aVgigapeta.com
p189
aVjunocloud.me
p190
aVkatfile.com
p191
aVkingfiles.net
p192
aVload.to
p193
aVmega.co.nz
p194
aVmegashares.com
p195
aVnowdownload.eu
p196
aVozofiles.com
p197
aVprefiles.com
p198
aVpurevid.com
p199
aVrapidgator.net
p200
aVrg.to
p201
aVrapidu.net
p202
aVscribd.com
p203
aVsendspace.com
p204
aVshare-online.biz
p205
aVsockshare.com
p206
aVsoundcloud.com
p207
aVtezfiles.com
p208
aVturbobit.net
p209
aVtusfiles.net
p210
aVunibytes.com
p211
aVuplea.com
p212
aVuploadcloud.pro
p213
aVuploaded.to
p214
aVuploaded.net
p215
aVul.to
p216
aVuploading.site
p217
aVuptobox.com
p218
aVuserscloud.com
p219
aVvidbux.com
p220
aVvidxden.com
p221
aVwipfiles.net
p222
aVwushare.com
p223
aVyunfile.com
p224
aVzippyshare.com
p225
aVyoutube.com
p226
aVmega.nz
p227
asS'pm'
p228
(lp229
s.